; Function Attrs: mustprogress uwtable
define void @_ZN6casadi10NlImporter9x_segmentEv(ptr noundef nonnull align 8 dereferenceable(672) %0) local_unnamed_addr #3 align 2 {
  %2 = alloca double, align 8
  %3 = alloca i32, align 4
  %4 = alloca i32, align 4
  call void @llvm.lifetime.start.p0(i64 4, ptr nonnull %4)
  %5 = getelementptr inbounds i8, ptr %0, i64 9
  %6 = load i8, ptr %5, align 1
  %7 = and i8 %6, 1
  %.not.i = icmp eq i8 %7, 0
  %8 = getelementptr inbounds i8, ptr %0, i64 16
  br i1 %.not.i, label %11, label %9

9:                                                ; preds = %1
  %10 = call noundef nonnull align 8 dereferenceable(16) ptr @_ZNSi4readEPcl(ptr noundef nonnull align 8 dereferenceable(16) %8, ptr noundef nonnull %4, i64 noundef 4)
  br label %_ZN6casadi10NlImporter8read_intEv.exit

11:                                               ; preds = %1
  %12 = call noundef nonnull align 8 dereferenceable(16) ptr @_ZNSirsERi(ptr noundef nonnull align 8 dereferenceable(16) %8, ptr noundef nonnull align 4 dereferenceable(4) %4)
  br label %_ZN6casadi10NlImporter8read_intEv.exit

_ZN6casadi10NlImporter8read_intEv.exit:           ; preds = %9, %11
  %13 = load i32, ptr %4, align 4
  call void @llvm.lifetime.end.p0(i64 4, ptr nonnull %4)
  %14 = icmp sgt i32 %13, 0
  br i1 %14, label %.lr.ph, label %._crit_edge

.lr.ph:                                           ; preds = %_ZN6casadi10NlImporter8read_intEv.exit, %_ZNSt6vectorIdSaIdEE2atEm.exit
  %.09 = phi i32 [ %41, %_ZNSt6vectorIdSaIdEE2atEm.exit ], [ 0, %_ZN6casadi10NlImporter8read_intEv.exit ]
  call void @llvm.lifetime.start.p0(i64 4, ptr nonnull %3)
  %15 = load i8, ptr %5, align 1
  %16 = and i8 %15, 1
  %.not.i5 = icmp eq i8 %16, 0
  br i1 %.not.i5, label %19, label %17

17:                                               ; preds = %.lr.ph
  %18 = call noundef nonnull align 8 dereferenceable(16) ptr @_ZNSi4readEPcl(ptr noundef nonnull align 8 dereferenceable(16) %8, ptr noundef nonnull %3, i64 noundef 4)
  br label %_ZN6casadi10NlImporter8read_intEv.exit6

19:                                               ; preds = %.lr.ph
  %20 = call noundef nonnull align 8 dereferenceable(16) ptr @_ZNSirsERi(ptr noundef nonnull align 8 dereferenceable(16) %8, ptr noundef nonnull align 4 dereferenceable(4) %3)
  br label %_ZN6casadi10NlImporter8read_intEv.exit6

_ZN6casadi10NlImporter8read_intEv.exit6:          ; preds = %17, %19
  %21 = load i32, ptr %3, align 4
  call void @llvm.lifetime.end.p0(i64 4, ptr nonnull %3)
  call void @llvm.lifetime.start.p0(i64 8, ptr nonnull %2)
  %22 = load i8, ptr %5, align 1
  %23 = and i8 %22, 1
  %.not.i7 = icmp eq i8 %23, 0
  br i1 %.not.i7, label %26, label %24

24:                                               ; preds = %_ZN6casadi10NlImporter8read_intEv.exit6
  %25 = call noundef nonnull align 8 dereferenceable(16) ptr @_ZNSi4readEPcl(ptr noundef nonnull align 8 dereferenceable(16) %8, ptr noundef nonnull %2, i64 noundef 8)
  br label %_ZN6casadi10NlImporter11read_doubleEv.exit

26:                                               ; preds = %_ZN6casadi10NlImporter8read_intEv.exit6
  %27 = call noundef nonnull align 8 dereferenceable(16) ptr @_ZNSirsERd(ptr noundef nonnull align 8 dereferenceable(16) %8, ptr noundef nonnull align 8 dereferenceable(8) %2)
  br label %_ZN6casadi10NlImporter11read_doubleEv.exit

_ZN6casadi10NlImporter11read_doubleEv.exit:       ; preds = %24, %26
  %28 = load double, ptr %2, align 8
  call void @llvm.lifetime.end.p0(i64 8, ptr nonnull %2)
  %29 = load ptr, ptr %0, align 8
  %30 = getelementptr inbounds i8, ptr %29, i64 152
  %31 = sext i32 %21 to i64
  %32 = getelementptr inbounds i8, ptr %29, i64 160
  %33 = load ptr, ptr %32, align 8
  %34 = load ptr, ptr %30, align 8
  %35 = ptrtoint ptr %33 to i64
  %36 = ptrtoint ptr %34 to i64
  %37 = sub i64 %35, %36
  %38 = ashr exact i64 %37, 3
  %.not.i.i = icmp ugt i64 %38, %31
  br i1 %.not.i.i, label %_ZNSt6vectorIdSaIdEE2atEm.exit, label %39

39:                                               ; preds = %_ZN6casadi10NlImporter11read_doubleEv.exit
  call void (ptr, ...) @_ZSt24__throw_out_of_range_fmtPKcz(ptr noundef nonnull @.str.87, i64 noundef %31, i64 noundef %38) #18
  unreachable

_ZNSt6vectorIdSaIdEE2atEm.exit:                   ; preds = %_ZN6casadi10NlImporter11read_doubleEv.exit
  %40 = getelementptr inbounds double, ptr %34, i64 %31
  store double %28, ptr %40, align 8
  %41 = add nuw nsw i32 %.09, 1
  %exitcond.not = icmp eq i32 %41, %13
  br i1 %exitcond.not, label %._crit_edge, label %.lr.ph, !llvm.loop !124

._crit_edge:                                      ; preds = %_ZNSt6vectorIdSaIdEE2atEm.exit, %_ZN6casadi10NlImporter8read_intEv.exit
  ret void
}